target datalayout = "e-m:e-p270:32:32-p271:32:32-p272:64:64-i64:64-i128:128-f80:128-n8:16:32:64-S128"
target triple = "x86_64-pc-linux-gnu"

%struct.Vec_Ptr_t_ = type { i32, i32, ptr }

; Function Attrs: inlinehint nounwind uwtable
define internal ptr @Aig_Not(ptr noundef %0) #2 {
  %2 = alloca ptr, align 8
  store ptr %0, ptr %2, align 8, !tbaa !25
  %3 = load ptr, ptr %2, align 8, !tbaa !25
  %4 = ptrtoint ptr %3 to i64
  %5 = xor i64 %4, 1
  %6 = inttoptr i64 %5 to ptr
  ret ptr %6
}

; Function Attrs: nounwind uwtable
define ptr @Aig_MiterTwo(ptr noundef %0, ptr noundef %1, ptr noundef %2) #0 {
  %4 = alloca ptr, align 8
  %5 = alloca ptr, align 8
  %6 = alloca ptr, align 8
  %7 = alloca i32, align 4
  store ptr %0, ptr %4, align 8, !tbaa !3
  store ptr %1, ptr %5, align 8, !tbaa !33
  store ptr %2, ptr %6, align 8, !tbaa !33
  call void @llvm.lifetime.start.p0(i64 4, ptr %7) #7
  store i32 0, ptr %7, align 4, !tbaa !8
  br label %8

8:                                                ; preds = %38, %3
  %9 = load i32, ptr %7, align 4, !tbaa !8
  %10 = load ptr, ptr %5, align 8, !tbaa !33
  %11 = getelementptr inbounds nuw %struct.Vec_Ptr_t_, ptr %10, i32 0, i32 1
  %12 = load i32, ptr %11, align 4, !tbaa !34
  %13 = icmp slt i32 %9, %12
  br i1 %13, label %14, label %41

14:                                               ; preds = %8
  %15 = load ptr, ptr %4, align 8, !tbaa !3
  %16 = load ptr, ptr %5, align 8, !tbaa !33
  %17 = getelementptr inbounds nuw %struct.Vec_Ptr_t_, ptr %16, i32 0, i32 2
  %18 = load ptr, ptr %17, align 8, !tbaa !36
  %19 = load i32, ptr %7, align 4, !tbaa !8
  %20 = sext i32 %19 to i64
  %21 = getelementptr inbounds ptr, ptr %18, i64 %20
  %22 = load ptr, ptr %21, align 8, !tbaa !37
  %23 = load ptr, ptr %6, align 8, !tbaa !33
  %24 = getelementptr inbounds nuw %struct.Vec_Ptr_t_, ptr %23, i32 0, i32 2
  %25 = load ptr, ptr %24, align 8, !tbaa !36
  %26 = load i32, ptr %7, align 4, !tbaa !8
  %27 = sext i32 %26 to i64
  %28 = getelementptr inbounds ptr, ptr %25, i64 %27
  %29 = load ptr, ptr %28, align 8, !tbaa !37
  %30 = call ptr @Aig_Exor(ptr noundef %15, ptr noundef %22, ptr noundef %29)
  %31 = call ptr @Aig_Not(ptr noundef %30)
  %32 = load ptr, ptr %5, align 8, !tbaa !33
  %33 = getelementptr inbounds nuw %struct.Vec_Ptr_t_, ptr %32, i32 0, i32 2
  %34 = load ptr, ptr %33, align 8, !tbaa !36
  %35 = load i32, ptr %7, align 4, !tbaa !8
  %36 = sext i32 %35 to i64
  %37 = getelementptr inbounds ptr, ptr %34, i64 %36
  store ptr %31, ptr %37, align 8, !tbaa !37
  br label %38

38:                                               ; preds = %14
  %39 = load i32, ptr %7, align 4, !tbaa !8
  %40 = add nsw i32 %39, 1
  store i32 %40, ptr %7, align 4, !tbaa !8
  br label %8, !llvm.loop !39

41:                                               ; preds = %8
  %42 = load ptr, ptr %4, align 8, !tbaa !3
  %43 = load ptr, ptr %5, align 8, !tbaa !33
  %44 = getelementptr inbounds nuw %struct.Vec_Ptr_t_, ptr %43, i32 0, i32 2
  %45 = load ptr, ptr %44, align 8, !tbaa !36
  %46 = load ptr, ptr %5, align 8, !tbaa !33
  %47 = getelementptr inbounds nuw %struct.Vec_Ptr_t_, ptr %46, i32 0, i32 1
  %48 = load i32, ptr %47, align 4, !tbaa !34
  %49 = call ptr @Aig_Multi_rec(ptr noundef %42, ptr noundef %45, i32 noundef %48, i32 noundef 5)
  %50 = call ptr @Aig_Not(ptr noundef %49)
  call void @llvm.lifetime.end.p0(i64 4, ptr %7) #7
  ret ptr %50
}