; Function Attrs: nounwind uwtable
define ptr @Aig_MiterTwo(ptr noundef %0, ptr noundef readonly captures(none) %1, ptr noundef readonly captures(none) %2) local_unnamed_addr #0 {
  %4 = getelementptr inbounds nuw i8, ptr %1, i64 4
  %5 = load i32, ptr %4, align 4, !tbaa !34
  %6 = icmp sgt i32 %5, 0
  br i1 %6, label %.lr.ph, label %._crit_edge

.lr.ph:                                           ; preds = %3
  %7 = getelementptr inbounds nuw i8, ptr %1, i64 8
  %8 = getelementptr inbounds nuw i8, ptr %2, i64 8
  br label %9

9:                                                ; preds = %.lr.ph, %9
  %indvars.iv = phi i64 [ 0, %.lr.ph ], [ %indvars.iv.next, %9 ]
  %10 = load ptr, ptr %7, align 8, !tbaa !24
  %11 = getelementptr inbounds nuw ptr, ptr %10, i64 %indvars.iv
  %12 = load ptr, ptr %11, align 8, !tbaa !26
  %13 = load ptr, ptr %8, align 8, !tbaa !24
  %14 = getelementptr inbounds nuw ptr, ptr %13, i64 %indvars.iv
  %15 = load ptr, ptr %14, align 8, !tbaa !26
  %16 = tail call ptr @Aig_Exor(ptr noundef %0, ptr noundef %12, ptr noundef %15)
  %17 = ptrtoint ptr %16 to i64
  %18 = xor i64 %17, 1
  %19 = inttoptr i64 %18 to ptr
  %20 = load ptr, ptr %7, align 8, !tbaa !24
  %21 = getelementptr inbounds nuw ptr, ptr %20, i64 %indvars.iv
  store ptr %19, ptr %21, align 8, !tbaa !26
  %indvars.iv.next = add nuw nsw i64 %indvars.iv, 1
  %22 = load i32, ptr %4, align 4, !tbaa !34
  %23 = sext i32 %22 to i64
  %24 = icmp slt i64 %indvars.iv.next, %23
  br i1 %24, label %9, label %._crit_edge, !llvm.loop !36

._crit_edge:                                      ; preds = %9, %3
  %.lcssa = phi i32 [ %5, %3 ], [ %22, %9 ]
  %25 = getelementptr inbounds nuw i8, ptr %1, i64 8
  %26 = load ptr, ptr %25, align 8, !tbaa !24
  %27 = tail call ptr @Aig_Multi_rec(ptr noundef %0, ptr noundef %26, i32 noundef %.lcssa, i32 noundef 5)
  %28 = ptrtoint ptr %27 to i64
  %29 = xor i64 %28, 1
  %30 = inttoptr i64 %29 to ptr
  ret ptr %30
}